; Function Attrs: nofree norecurse nosync nounwind memory(argmem: read) uwtable
define dso_local i32 @bit_overlap(ptr noundef readonly captures(none) %0, ptr noundef readonly captures(none) %1) #3 {
  %3 = getelementptr inbounds nuw i8, ptr %0, i64 8
  %4 = load i64, ptr %3, align 8
  %5 = icmp sgt i64 %4, 0
  br i1 %5, label %.lr.ph.split.us.i, label %_bit_overlap_internal.exit

.lr.ph.split.us.i:                                ; preds = %2, %7
  %.02943.us.i = phi i32 [ %18, %7 ], [ 0, %2 ]
  %.03142.us.i = phi i64 [ %8, %7 ], [ 0, %2 ]
  %6 = or disjoint i64 %.03142.us.i, 63
  %.not.us.i = icmp ult i64 %6, %4
  br i1 %.not.us.i, label %7, label %.split.us.i

7:                                                ; preds = %.lr.ph.split.us.i
  %8 = add i64 %.03142.us.i, 64
  %9 = ashr exact i64 %.03142.us.i, 6
  %10 = add nsw i64 %9, 2
  %11 = getelementptr inbounds i64, ptr %0, i64 %10
  %12 = load i64, ptr %11, align 8
  %13 = getelementptr inbounds i64, ptr %1, i64 %10
  %14 = load i64, ptr %13, align 8
  %15 = and i64 %14, %12
  %16 = tail call range(i64 0, 65) i64 @llvm.ctpop.i64(i64 %15)
  %17 = trunc nuw nsw i64 %16 to i32
  %18 = add nuw nsw i32 %.02943.us.i, %17
  %19 = icmp slt i64 %8, %4
  br i1 %19, label %.lr.ph.split.us.i, label %_bit_overlap_internal.exit, !llvm.loop !35

.split.us.i:                                      ; preds = %.lr.ph.split.us.i
  %20 = and i64 %4, 63
  %notmask.i = shl nsw i64 -1, %20
  %21 = xor i64 %notmask.i, -1
  %22 = ashr exact i64 %.03142.us.i, 6
  %23 = add nsw i64 %22, 2
  %24 = getelementptr inbounds i64, ptr %0, i64 %23
  %25 = load i64, ptr %24, align 8
  %26 = getelementptr inbounds i64, ptr %1, i64 %23
  %27 = load i64, ptr %26, align 8
  %28 = and i64 %25, %21
  %29 = and i64 %28, %27
  %.fr.i = freeze i64 %29
  %30 = tail call range(i64 0, 64) i64 @llvm.ctpop.i64(i64 %.fr.i)
  %31 = trunc nuw nsw i64 %30 to i32
  %32 = add nuw nsw i32 %.02943.us.i, %31
  br label %_bit_overlap_internal.exit

_bit_overlap_internal.exit:                       ; preds = %7, %2, %.split.us.i
  %.0.i = phi i32 [ %32, %.split.us.i ], [ 0, %2 ], [ %18, %7 ]
  ret i32 %.0.i
}